; Function Attrs: mustprogress uwtable
define void @_ZN10open_spiel28TurnBasedGoofspielGameStringB5cxx11Ei(ptr dead_on_unwind noalias writable sret(%"class.std::__cxx11::basic_string") align 8 %0, i32 noundef %1) local_unnamed_addr #0 {
_ZN4absl7debian219str_format_internal18FormatSpecTemplateIJLNS0_23FormatConversionCharSetE131067EEEC2EUa9enable_ifIXclL_ZNS1_15ValidFormatImplIJLS3_131067EEEEbNS0_11string_viewEEfL0p_EEEPKc.exit:
  %2 = alloca [1 x %"class.absl::debian2::str_format_internal::FormatArgImpl"], align 8
  call void @llvm.lifetime.start.p0(i64 16, ptr nonnull %2)
  %.sroa.0.0.insert.ext.i.i.i.i = zext i32 %1 to i64
  %3 = inttoptr i64 %.sroa.0.0.insert.ext.i.i.i.i to ptr
  store ptr %3, ptr %2, align 8, !noalias !16
  %4 = getelementptr inbounds nuw i8, ptr %2, i64 8
  store ptr @_ZN4absl7debian219str_format_internal13FormatArgImpl8DispatchIiEEbNS2_4DataENS1_24FormatConversionSpecImplEPv, ptr %4, align 8, !noalias !16
  call void @_ZN4absl7debian219str_format_internal10FormatPackB5cxx11ENS1_21UntypedFormatSpecImplENS0_4SpanIKNS1_13FormatArgImplEEE(ptr dead_on_unwind writable sret(%"class.std::__cxx11::basic_string") align 8 %0, ptr nonnull @.str.4, i64 128, ptr nonnull %2, i64 1)
  call void @llvm.lifetime.end.p0(i64 16, ptr nonnull %2)
  ret void
}